target datalayout = "e-m:e-p270:32:32-p271:32:32-p272:64:64-i64:64-i128:128-f80:128-n8:16:32:64-S128"
target triple = "x86_64-pc-linux-gnu"

@.str.6 = private unnamed_addr constant [8 x i8] c"%3d :  \00", align 1
@.str.7 = private unnamed_addr constant [3 x i8] c"%d\00", align 1
@.str.8 = private unnamed_addr constant [2 x i8] c" \00", align 1
@.str.9 = private unnamed_addr constant [13 x i8] c"  %d <-> %d\0A\00", align 1

; Function Attrs: nounwind uwtable
define void @Abc_GenChasePrint(i32 noundef %0, ptr noundef %1, i32 noundef %2, i32 noundef %3, i32 noundef %4, i32 noundef %5) #0 {
  %7 = alloca i32, align 4
  %8 = alloca ptr, align 8
  %9 = alloca i32, align 4
  %10 = alloca i32, align 4
  %11 = alloca i32, align 4
  %12 = alloca i32, align 4
  %13 = alloca i32, align 4
  store i32 %0, ptr %7, align 4, !tbaa !8
  store ptr %1, ptr %8, align 8, !tbaa !17
  store i32 %2, ptr %9, align 4, !tbaa !8
  store i32 %3, ptr %10, align 4, !tbaa !8
  store i32 %4, ptr %11, align 4, !tbaa !8
  store i32 %5, ptr %12, align 4, !tbaa !8
  call void @llvm.lifetime.start.p0(i64 4, ptr %13) #12
  %14 = load i32, ptr %7, align 4, !tbaa !8
  %15 = add nsw i32 %14, 1
  store i32 %15, ptr %7, align 4, !tbaa !8
  %16 = call i32 (ptr, ...) @printf(ptr noundef @.str.6, i32 noundef %14)
  %17 = load i32, ptr %9, align 4, !tbaa !8
  %18 = sub nsw i32 %17, 1
  store i32 %18, ptr %13, align 4, !tbaa !8
  br label %19

19:                                               ; preds = %30, %6
  %20 = load i32, ptr %13, align 4, !tbaa !8
  %21 = load i32, ptr %10, align 4, !tbaa !8
  %22 = icmp sge i32 %20, %21
  br i1 %22, label %23, label %33

23:                                               ; preds = %19
  %24 = load ptr, ptr %8, align 8, !tbaa !17
  %25 = load i32, ptr %13, align 4, !tbaa !8
  %26 = sext i32 %25 to i64
  %27 = getelementptr inbounds i32, ptr %24, i64 %26
  %28 = load i32, ptr %27, align 4, !tbaa !8
  %29 = call i32 (ptr, ...) @printf(ptr noundef @.str.7, i32 noundef %28)
  br label %30

30:                                               ; preds = %23
  %31 = load i32, ptr %13, align 4, !tbaa !8
  %32 = add nsw i32 %31, -1
  store i32 %32, ptr %13, align 4, !tbaa !8
  br label %19, !llvm.loop !81

33:                                               ; preds = %19
  %34 = call i32 (ptr, ...) @printf(ptr noundef @.str.8)
  %35 = load i32, ptr %10, align 4, !tbaa !8
  %36 = sub nsw i32 %35, 1
  store i32 %36, ptr %13, align 4, !tbaa !8
  br label %37

37:                                               ; preds = %47, %33
  %38 = load i32, ptr %13, align 4, !tbaa !8
  %39 = icmp sge i32 %38, 0
  br i1 %39, label %40, label %50

40:                                               ; preds = %37
  %41 = load ptr, ptr %8, align 8, !tbaa !17
  %42 = load i32, ptr %13, align 4, !tbaa !8
  %43 = sext i32 %42 to i64
  %44 = getelementptr inbounds i32, ptr %41, i64 %43
  %45 = load i32, ptr %44, align 4, !tbaa !8
  %46 = call i32 (ptr, ...) @printf(ptr noundef @.str.7, i32 noundef %45)
  br label %47

47:                                               ; preds = %40
  %48 = load i32, ptr %13, align 4, !tbaa !8
  %49 = add nsw i32 %48, -1
  store i32 %49, ptr %13, align 4, !tbaa !8
  br label %37, !llvm.loop !82

50:                                               ; preds = %37
  %51 = load i32, ptr %11, align 4, !tbaa !8
  %52 = load i32, ptr %12, align 4, !tbaa !8
  %53 = call i32 (ptr, ...) @printf(ptr noundef @.str.9, i32 noundef %51, i32 noundef %52)
  call void @llvm.lifetime.end.p0(i64 4, ptr %13) #12
  ret void
}