; Function Attrs: nofree nounwind uwtable
define void @Abc_GenChasePrint(i32 noundef %0, ptr noundef readonly captures(none) %1, i32 noundef %2, i32 noundef %3, i32 noundef %4, i32 noundef %5) local_unnamed_addr #7 {
  %7 = tail call i32 (ptr, ...) @printf(ptr noundef nonnull dereferenceable(1) @.str.6, i32 noundef %0)
  %.not.not14 = icmp sgt i32 %2, %3
  br i1 %.not.not14, label %.lr.ph.preheader, label %._crit_edge

.lr.ph.preheader:                                 ; preds = %6
  %8 = sext i32 %2 to i64
  %9 = sext i32 %3 to i64
  br label %.lr.ph

.lr.ph:                                           ; preds = %.lr.ph.preheader, %.lr.ph
  %indvars.iv = phi i64 [ %8, %.lr.ph.preheader ], [ %indvars.iv.next, %.lr.ph ]
  %indvars.iv.next = add nsw i64 %indvars.iv, -1
  %10 = getelementptr inbounds i32, ptr %1, i64 %indvars.iv.next
  %11 = load i32, ptr %10, align 4, !tbaa !7
  %12 = tail call i32 (ptr, ...) @printf(ptr noundef nonnull dereferenceable(1) @.str.7, i32 noundef %11)
  %.not.not = icmp sgt i64 %indvars.iv.next, %9
  br i1 %.not.not, label %.lr.ph, label %._crit_edge, !llvm.loop !67

._crit_edge:                                      ; preds = %.lr.ph, %6
  %putchar = tail call i32 @putchar(i32 32)
  %13 = icmp sgt i32 %3, 0
  br i1 %13, label %.lr.ph18.preheader, label %._crit_edge19

.lr.ph18.preheader:                               ; preds = %._crit_edge
  %14 = zext nneg i32 %3 to i64
  br label %.lr.ph18

.lr.ph18:                                         ; preds = %.lr.ph18.preheader, %.lr.ph18
  %indvars.iv21 = phi i64 [ %14, %.lr.ph18.preheader ], [ %indvars.iv.next22, %.lr.ph18 ]
  %indvars.iv.next22 = add nsw i64 %indvars.iv21, -1
  %15 = getelementptr inbounds nuw i32, ptr %1, i64 %indvars.iv.next22
  %16 = load i32, ptr %15, align 4, !tbaa !7
  %17 = tail call i32 (ptr, ...) @printf(ptr noundef nonnull dereferenceable(1) @.str.7, i32 noundef %16)
  %18 = icmp samesign ugt i64 %indvars.iv21, 1
  br i1 %18, label %.lr.ph18, label %._crit_edge19, !llvm.loop !68

._crit_edge19:                                    ; preds = %.lr.ph18, %._crit_edge
  %19 = tail call i32 (ptr, ...) @printf(ptr noundef nonnull dereferenceable(1) @.str.9, i32 noundef %4, i32 noundef %5)
  ret void
}